; Function Attrs: nofree norecurse nosync nounwind memory(argmem: readwrite) uwtable
define internal void @eotf_iec61966_2_1_inv(double noundef %0, double noundef %1, ptr noundef captures(none) %2) #5 {
  %4 = fsub nsz double %0, %1
  br label %5

5:                                                ; preds = %5, %3
  %indvars.iv.i = phi i64 [ 0, %3 ], [ %indvars.iv.next.i, %5 ]
  %6 = getelementptr inbounds nuw double, ptr %2, i64 %indvars.iv.i
  %7 = load double, ptr %6, align 8, !tbaa !16
  %8 = fsub nsz double %7, %1
  %9 = fdiv nsz double %8, %4
  store double %9, ptr %6, align 8, !tbaa !16
  %indvars.iv.next.i = add nuw nsw i64 %indvars.iv.i, 1
  %exitcond.not.i = icmp eq i64 %indvars.iv.next.i, 3
  br i1 %exitcond.not.i, label %eotf_linear_inv.exit, label %5, !llvm.loop !30

eotf_linear_inv.exit:                             ; preds = %5, %trc_iec61966_2_1.exit.i
  %indvars.iv.i4 = phi i64 [ %indvars.iv.next.i5, %trc_iec61966_2_1.exit.i ], [ 0, %5 ]
  %10 = getelementptr inbounds nuw double, ptr %2, i64 %indvars.iv.i4
  %11 = load double, ptr %10, align 8, !tbaa !16
  %12 = fcmp nsz olt double %11, 0.000000e+00
  br i1 %12, label %trc_iec61966_2_1.exit.i, label %13

13:                                               ; preds = %eotf_linear_inv.exit
  %14 = fcmp nsz olt double %11, 3.130800e-03
  br i1 %14, label %15, label %17

15:                                               ; preds = %13
  %16 = fmul nsz double %11, 1.292000e+01
  br label %trc_iec61966_2_1.exit.i

17:                                               ; preds = %13
  %18 = tail call nsz double @llvm.pow.f64(double %11, double 0x3FDAAAAAAAAAAAAB)
  %19 = tail call nsz double @llvm.fmuladd.f64(double %18, double 1.055000e+00, double 0xBFAC28F5C28F5C20)
  br label %trc_iec61966_2_1.exit.i

trc_iec61966_2_1.exit.i:                          ; preds = %17, %15, %eotf_linear_inv.exit
  %20 = phi nsz double [ 0.000000e+00, %eotf_linear_inv.exit ], [ %16, %15 ], [ %19, %17 ]
  store double %20, ptr %10, align 8, !tbaa !16
  %indvars.iv.next.i5 = add nuw nsw i64 %indvars.iv.i4, 1
  %exitcond.not.i6 = icmp eq i64 %indvars.iv.next.i5, 3
  br i1 %exitcond.not.i6, label %oetf_iec61966_2_1.exit, label %eotf_linear_inv.exit, !llvm.loop !33

oetf_iec61966_2_1.exit:                           ; preds = %trc_iec61966_2_1.exit.i
  ret void
}